; Function Attrs: nofree norecurse nosync nounwind memory(read, inaccessiblemem: none) uwtable
define i64 @Xzs_GetUnpackSize(ptr noundef readonly captures(none) %0) local_unnamed_addr #2 {
  %2 = load i64, ptr %0, align 8
  %.not = icmp eq i64 %2, 0
  br i1 %.not, label %._crit_edge, label %.lr.ph

.lr.ph:                                           ; preds = %1
  %3 = getelementptr inbounds nuw i8, ptr %0, i64 16
  %4 = load ptr, ptr %3, align 8
  br label %7

5:                                                ; preds = %Xz_GetUnpackSize.exit
  %6 = add nuw i64 %.01014, 1
  %exitcond.not = icmp eq i64 %6, %2
  br i1 %exitcond.not, label %._crit_edge, label %7

7:                                                ; preds = %.lr.ph, %5
  %.01014 = phi i64 [ 0, %.lr.ph ], [ %6, %5 ]
  %.01113 = phi i64 [ 0, %.lr.ph ], [ %20, %5 ]
  %8 = getelementptr inbounds %struct.CXzStream, ptr %4, i64 %.01014
  %9 = getelementptr inbounds nuw i8, ptr %8, i64 8
  %10 = load i64, ptr %9, align 8
  %.not.i = icmp eq i64 %10, 0
  br i1 %.not.i, label %Xz_GetUnpackSize.exit, label %.lr.ph.i

.lr.ph.i:                                         ; preds = %7
  %11 = getelementptr inbounds nuw i8, ptr %8, i64 24
  %12 = load ptr, ptr %11, align 8
  br label %15

13:                                               ; preds = %15
  %14 = add nuw i64 %.01014.i, 1
  %exitcond.not.i = icmp eq i64 %14, %10
  br i1 %exitcond.not.i, label %Xz_GetUnpackSize.exit, label %15

15:                                               ; preds = %13, %.lr.ph.i
  %.01014.i = phi i64 [ 0, %.lr.ph.i ], [ %14, %13 ]
  %.01113.i = phi i64 [ 0, %.lr.ph.i ], [ %18, %13 ]
  %16 = getelementptr inbounds %struct.CXzBlockSizes, ptr %12, i64 %.01014.i
  %17 = load i64, ptr %16, align 8
  %18 = add i64 %17, %.01113.i
  %19 = icmp ult i64 %18, %.01113.i
  br i1 %19, label %Xz_GetUnpackSize.exit, label %13

Xz_GetUnpackSize.exit:                            ; preds = %13, %15, %7
  %.0.i = phi i64 [ 0, %7 ], [ -1, %15 ], [ %18, %13 ]
  %20 = add i64 %.0.i, %.01113
  %21 = icmp ult i64 %20, %.01113
  br i1 %21, label %._crit_edge, label %5

._crit_edge:                                      ; preds = %Xz_GetUnpackSize.exit, %5, %1
  %.0 = phi i64 [ 0, %1 ], [ %20, %5 ], [ -1, %Xz_GetUnpackSize.exit ]
  ret i64 %.0
}